; ModuleID = '15/482.c'
source_filename = "15/482.c"
target datalayout = "e-m:e-p270:32:32-p271:32:32-p272:64:64-i64:64-f80:128-n8:16:32:64-S128"
target triple = "x86_64-pc-linux-gnu"

@.str = private unnamed_addr constant [3 x i8] c"%d\00", align 1
@.str.1 = private unnamed_addr constant [5 x i8] c"\0A%d\0A\00", align 1

; Function Attrs: noinline nounwind uwtable
define dso_local i32 @main(i32 %0, i8** %1) #0 {
  %3 = alloca i32, align 4
  %4 = alloca i32, align 4
  %5 = alloca i8**, align 8
  %6 = alloca [1000 x [1000 x i32]], align 16
  %7 = alloca i32, align 4
  %8 = alloca i32, align 4
  %9 = alloca i32, align 4
  %10 = alloca i32, align 4
  %11 = alloca i32, align 4
  %12 = alloca i32, align 4
  %13 = alloca i32, align 4
  %14 = alloca i32, align 4
  store i32 0, i32* %3, align 4
  store i32 %0, i32* %4, align 4
  store i8** %1, i8*** %5, align 8
  store i32 0, i32* %13, align 4
  store i32 0, i32* %12, align 4
  store i32 0, i32* %11, align 4
  store i32 0, i32* %10, align 4
  %15 = call i32 (i8*, ...) @__isoc99_scanf(i8* getelementptr inbounds ([3 x i8], [3 x i8]* @.str, i64 0, i64 0), i32* %7)
  store i32 0, i32* %8, align 4
  br label %16

16:                                               ; preds = %37, %2
  %17 = load i32, i32* %8, align 4
  %18 = load i32, i32* %7, align 4
  %19 = icmp slt i32 %17, %18
  br i1 %19, label %20, label %40

20:                                               ; preds = %16
  store i32 0, i32* %9, align 4
  br label %21

21:                                               ; preds = %33, %20
  %22 = load i32, i32* %9, align 4
  %23 = load i32, i32* %7, align 4
  %24 = icmp slt i32 %22, %23
  br i1 %24, label %25, label %36

25:                                               ; preds = %21
  %26 = load i32, i32* %8, align 4
  %27 = sext i32 %26 to i64
  %28 = getelementptr inbounds [1000 x [1000 x i32]], [1000 x [1000 x i32]]* %6, i64 0, i64 %27
  %29 = load i32, i32* %9, align 4
  %30 = sext i32 %29 to i64
  %31 = getelementptr inbounds [1000 x i32], [1000 x i32]* %28, i64 0, i64 %30
  %32 = call i32 (i8*, ...) @__isoc99_scanf(i8* getelementptr inbounds ([3 x i8], [3 x i8]* @.str, i64 0, i64 0), i32* %31)
  br label %33

33:                                               ; preds = %25
  %34 = load i32, i32* %9, align 4
  %35 = add nsw i32 %34, 1
  store i32 %35, i32* %9, align 4
  br label %21

36:                                               ; preds = %21
  br label %37

37:                                               ; preds = %36
  %38 = load i32, i32* %8, align 4
  %39 = add nsw i32 %38, 1
  store i32 %39, i32* %8, align 4
  br label %16

40:                                               ; preds = %16
  store i32 0, i32* %8, align 4
  br label %41

41:                                               ; preds = %77, %40
  %42 = load i32, i32* %8, align 4
  %43 = load i32, i32* %7, align 4
  %44 = icmp slt i32 %42, %43
  br i1 %44, label %45, label %80

45:                                               ; preds = %41
  store i32 0, i32* %9, align 4
  br label %46

46:                                               ; preds = %63, %45
  %47 = load i32, i32* %9, align 4
  %48 = load i32, i32* %7, align 4
  %49 = icmp slt i32 %47, %48
  br i1 %49, label %50, label %66

50:                                               ; preds = %46
  %51 = load i32, i32* %8, align 4
  %52 = sext i32 %51 to i64
  %53 = getelementptr inbounds [1000 x [1000 x i32]], [1000 x [1000 x i32]]* %6, i64 0, i64 %52
  %54 = load i32, i32* %9, align 4
  %55 = sext i32 %54 to i64
  %56 = getelementptr inbounds [1000 x i32], [1000 x i32]* %53, i64 0, i64 %55
  %57 = load i32, i32* %56, align 4
  %58 = icmp eq i32 %57, 0
  br i1 %58, label %59, label %62

59:                                               ; preds = %50
  %60 = load i32, i32* %8, align 4
  store i32 %60, i32* %10, align 4
  %61 = load i32, i32* %9, align 4
  store i32 %61, i32* %12, align 4
  br label %66

62:                                               ; preds = %50
  br label %63

63:                                               ; preds = %62
  %64 = load i32, i32* %9, align 4
  %65 = add nsw i32 %64, 1
  store i32 %65, i32* %9, align 4
  br label %46

66:                                               ; preds = %59, %46
  %67 = load i32, i32* %10, align 4
  %68 = sext i32 %67 to i64
  %69 = getelementptr inbounds [1000 x [1000 x i32]], [1000 x [1000 x i32]]* %6, i64 0, i64 %68
  %70 = load i32, i32* %12, align 4
  %71 = sext i32 %70 to i64
  %72 = getelementptr inbounds [1000 x i32], [1000 x i32]* %69, i64 0, i64 %71
  %73 = load i32, i32* %72, align 4
  %74 = icmp eq i32 %73, 0
  br i1 %74, label %75, label %76

75:                                               ; preds = %66
  br label %80

76:                                               ; preds = %66
  br label %77

77:                                               ; preds = %76
  %78 = load i32, i32* %8, align 4
  %79 = add nsw i32 %78, 1
  store i32 %79, i32* %8, align 4
  br label %41

80:                                               ; preds = %75, %41
  %81 = load i32, i32* %7, align 4
  %82 = sub nsw i32 %81, 1
  store i32 %82, i32* %8, align 4
  br label %83

83:                                               ; preds = %119, %80
  %84 = load i32, i32* %8, align 4
  %85 = icmp sge i32 %84, 0
  br i1 %85, label %86, label %122

86:                                               ; preds = %83
  %87 = load i32, i32* %7, align 4
  %88 = sub nsw i32 %87, 1
  store i32 %88, i32* %9, align 4
  br label %89

89:                                               ; preds = %105, %86
  %90 = load i32, i32* %9, align 4
  %91 = icmp sge i32 %90, 0
  br i1 %91, label %92, label %108

92:                                               ; preds = %89
  %93 = load i32, i32* %8, align 4
  %94 = sext i32 %93 to i64
  %95 = getelementptr inbounds [1000 x [1000 x i32]], [1000 x [1000 x i32]]* %6, i64 0, i64 %94
  %96 = load i32, i32* %9, align 4
  %97 = sext i32 %96 to i64
  %98 = getelementptr inbounds [1000 x i32], [1000 x i32]* %95, i64 0, i64 %97
  %99 = load i32, i32* %98, align 4
  %100 = icmp eq i32 %99, 0
  br i1 %100, label %101, label %104

101:                                              ; preds = %92
  %102 = load i32, i32* %8, align 4
  store i32 %102, i32* %11, align 4
  %103 = load i32, i32* %9, align 4
  store i32 %103, i32* %13, align 4
  br label %108

104:                                              ; preds = %92
  br label %105

105:                                              ; preds = %104
  %106 = load i32, i32* %9, align 4
  %107 = add nsw i32 %106, -1
  store i32 %107, i32* %9, align 4
  br label %89

108:                                              ; preds = %101, %89
  %109 = load i32, i32* %11, align 4
  %110 = sext i32 %109 to i64
  %111 = getelementptr inbounds [1000 x [1000 x i32]], [1000 x [1000 x i32]]* %6, i64 0, i64 %110
  %112 = load i32, i32* %13, align 4
  %113 = sext i32 %112 to i64
  %114 = getelementptr inbounds [1000 x i32], [1000 x i32]* %111, i64 0, i64 %113
  %115 = load i32, i32* %114, align 4
  %116 = icmp eq i32 %115, 0
  br i1 %116, label %117, label %118

117:                                              ; preds = %108
  br label %122

118:                                              ; preds = %108
  br label %119

119:                                              ; preds = %118
  %120 = load i32, i32* %8, align 4
  %121 = add nsw i32 %120, -1
  store i32 %121, i32* %8, align 4
  br label %83

122:                                              ; preds = %117, %83
  %123 = load i32, i32* %11, align 4
  %124 = load i32, i32* %10, align 4
  %125 = sub nsw i32 %123, %124
  %126 = sub nsw i32 %125, 1
  %127 = load i32, i32* %13, align 4
  %128 = load i32, i32* %12, align 4
  %129 = sub nsw i32 %127, %128
  %130 = sub nsw i32 %129, 1
  %131 = mul nsw i32 %126, %130
  store i32 %131, i32* %14, align 4
  %132 = load i32, i32* %14, align 4
  %133 = call i32 (i8*, ...) @printf(i8* getelementptr inbounds ([5 x i8], [5 x i8]* @.str.1, i64 0, i64 0), i32 %132)
  ret i32 0
}

declare dso_local i32 @__isoc99_scanf(i8*, ...) #1

declare dso_local i32 @printf(i8*, ...) #1


!llvm.module.flags = !{!0}
!llvm.ident = !{!1}

!0 = !{i32 1, !"wchar_size", i32 4}
!1 = !{!"clang version 10.0.0-4ubuntu1 "}
